; Function Attrs: mustprogress nofree norecurse nosync nounwind willreturn memory(argmem: readwrite) uwtable
define internal range(i32 0, 23) i32 @arenas_nlextents_ctl(ptr readnone captures(none) %0, ptr readnone captures(none) %1, i64 %2, ptr noundef writeonly captures(address_is_null) %3, ptr noundef captures(address_is_null) %4, ptr noundef readnone captures(address_is_null) %5, i64 noundef %6) #10 {
  %8 = alloca i32, align 4
  call void @llvm.lifetime.start.p0(i64 4, ptr nonnull %8)
  %9 = icmp ne ptr %5, null
  %10 = icmp ne i64 %6, 0
  %or.cond = or i1 %9, %10
  br i1 %or.cond, label %18, label %11

11:                                               ; preds = %7
  store i32 196, ptr %8, align 4, !tbaa !88
  %12 = icmp ne ptr %3, null
  %13 = icmp ne ptr %4, null
  %or.cond3 = and i1 %12, %13
  br i1 %or.cond3, label %14, label %18

14:                                               ; preds = %11
  %15 = load i64, ptr %4, align 8, !tbaa !3
  %.not = icmp eq i64 %15, 4
  br i1 %.not, label %17, label %16

16:                                               ; preds = %14
  %spec.select = tail call i64 @llvm.umin.i64(i64 %15, i64 4)
  call void @llvm.memcpy.p0.p0.i64(ptr nonnull align 1 %3, ptr nonnull align 4 %8, i64 %spec.select, i1 false)
  store i64 %spec.select, ptr %4, align 8, !tbaa !3
  br label %18

17:                                               ; preds = %14
  store i32 196, ptr %3, align 4, !tbaa !88
  br label %18

18:                                               ; preds = %16, %7, %17, %11
  %.018 = phi i32 [ 22, %16 ], [ 1, %7 ], [ 0, %17 ], [ 0, %11 ]
  call void @llvm.lifetime.end.p0(i64 4, ptr nonnull %8)
  ret i32 %.018
}